target datalayout = "e-m:e-p270:32:32-p271:32:32-p272:64:64-i64:64-i128:128-f80:128-n8:16:32:64-S128"
target triple = "x86_64-pc-linux-gnu"

%struct.MPVEncContext = type { %struct.MpegEncContext, %struct.PutBitContext, i32, i32, ptr, i32, i32, i32, i32, i32, i32, i32, i32, ptr, ptr, %struct.FDCTDSPContext, %struct.MpegvideoEncDSPContext, %struct.PixblockDSPContext, %struct.MotionEstContext, i32, i32, ptr, ptr, ptr, ptr, ptr, ptr, [2 x [2 x [2 x ptr]]], [2 x ptr], [2 x [2 x ptr]], ptr, ptr, ptr, ptr, [3 x i64], i32, i32, i32, i32, i32, ptr, ptr, ptr, ptr, ptr, ptr, ptr, [12 x i32], ptr, ptr, ptr, ptr, ptr, ptr, ptr, ptr, [2 x i32], ptr, i32, i32, i32, i32, i32, i32, i32, i32, i32, i32, ptr, ptr, i32, i32, %struct.PutBitContext, %struct.PutBitContext, i32, i32, i32, i32, ptr, ptr, ptr, [2 x ptr], [2 x ptr], [2 x ptr], [2 x ptr], ptr, i32 }
%struct.MpegEncContext = type { ptr, i32, i32, i32, [12 x i32], i32, %struct.ScanTable, %struct.ScanTable, [64 x i8], [64 x i8], ptr, ptr, i32, i32, i32, i32, i32, i32, i32, i32, i32, i32, i32, i32, i32, i32, i32, i32, i32, i32, i32, i32, i64, i64, ptr, %struct.BufferPoolContext, i32, i32, %union.anon, i32, %struct.MPVWorkPicture, %struct.MPVWorkPicture, %struct.MPVWorkPicture, i32, [3 x i32], ptr, [3 x ptr], ptr, ptr, ptr, ptr, ptr, ptr, [3 x ptr], i32, ptr, ptr, ptr, ptr, %struct.ScratchpadContext, i32, i32, i32, i32, i32, i32, %struct.BlockDSPContext, %struct.H264ChromaContext, %struct.HpelDSPContext, %struct.IDCTDSPContext, %struct.QpelDSPContext, %struct.VideoDSPContext, %struct.H263DSPContext, ptr, [2 x [2 x ptr]], i32, i32, [2 x [4 x [2 x i32]]], [2 x [2 x i32]], [2 x [2 x [2 x i32]]], [2 x [64 x i16]], i32, i32, i32, i32, i32, [6 x i32], [6 x i32], [3 x ptr], ptr, [64 x i16], [64 x i16], [64 x i16], [64 x i16], i32, i32, %struct.GetBitContext, i32, i32, i32, i32, i32, i32, i32, i32, i32, i32, i32, i32, i32, i32, i32, i64, i64, i16, i16, i16, i16, i32, i32, i32, i32, i32, i32, i32, i32, i32, [3 x i32], i32, i32, i32, i32, i32, i32, %struct.GetBitContext, i32, [2 x [2 x i32]], i32, i32, i32, i32, i32, i32, i32, i32, i32, i32, i32, i32, i32, i32, [2 x i32], i32, i32, ptr, ptr, ptr, ptr, ptr, i32, i32, %struct.ERContext }
%struct.ScanTable = type { ptr, [64 x i8], [64 x i8] }
%struct.BufferPoolContext = type { ptr, ptr, ptr, ptr, ptr, i32, i32, i32 }
%union.anon = type { [32 x ptr] }
%struct.MPVWorkPicture = type { [3 x ptr], [3 x i64], ptr, ptr, [2 x ptr], ptr, ptr, [2 x ptr], i32 }
%struct.ScratchpadContext = type { ptr, ptr, %union.anon.0, i32 }
%union.anon.0 = type { ptr }
%struct.BlockDSPContext = type { ptr, ptr, [2 x ptr] }
%struct.H264ChromaContext = type { [4 x ptr], [4 x ptr] }
%struct.HpelDSPContext = type { [4 x [4 x ptr]], [4 x [4 x ptr]], [4 x [4 x ptr]], [4 x ptr] }
%struct.IDCTDSPContext = type { ptr, ptr, ptr, ptr, ptr, ptr, [64 x i8], i32, i32 }
%struct.QpelDSPContext = type { [2 x [16 x ptr]], [2 x [16 x ptr]], [2 x [16 x ptr]] }
%struct.VideoDSPContext = type { ptr, ptr }
%struct.H263DSPContext = type { ptr, ptr }
%struct.GetBitContext = type { ptr, ptr, i32, i32, i32 }
%struct.ERContext = type { ptr, ptr, i32, ptr, i32, i32, i32, i64, i64, i32, i32, ptr, ptr, [3 x ptr], ptr, ptr, [2 x [4 x [2 x i32]]], %struct.ERPicture, %struct.ERPicture, %struct.ERPicture, [2 x ptr], [2 x ptr], i16, i16, i32, i32, ptr, ptr }
%struct.ERPicture = type { ptr, ptr, ptr, [2 x ptr], [2 x ptr], ptr, i32 }
%struct.FDCTDSPContext = type { ptr, ptr }
%struct.MpegvideoEncDSPContext = type { ptr, ptr, ptr, ptr, [4 x ptr], ptr }
%struct.PixblockDSPContext = type { ptr, ptr, ptr, ptr }
%struct.MotionEstContext = type { ptr, i32, i32, [4 x [2 x i32]], [4 x [2 x i32]], ptr, ptr, i32, i32, i32, i32, i32, i32, i32, i32, i32, i32, i32, i32, i32, i32, i32, i32, [4 x [4 x ptr]], [4 x [4 x ptr]], i32, i32, i64, i64, i32, [6 x ptr], [6 x ptr], [6 x ptr], [6 x ptr], [2 x [4 x ptr]], ptr, ptr, ptr, ptr, ptr, ptr, ptr, ptr, [64 x i32], [64 x i32] }
%struct.PutBitContext = type { i32, i32, ptr, ptr, ptr }
%struct.AVCodecContext = type { ptr, i32, i32, ptr, i32, i32, ptr, ptr, ptr, i64, i32, i32, ptr, i32, %struct.AVRational, %struct.AVRational, %struct.AVRational, i32, i32, i32, i32, i32, %struct.AVRational, i32, i32, i32, i32, i32, i32, i32, i32, i32, i32, i32, ptr, ptr, i32, float, float, float, float, float, float, float, float, float, i32, i32, i32, i32, i32, i32, i32, i32, i32, i32, i32, i32, ptr, ptr, ptr, i32, i32, i32, i32, i32, i32, i32, i32, i32, i32, %struct.AVChannelLayout, i32, i32, i32, i32, i32, i32, i32, i32, ptr, i32, i32, i32, float, float, i32, i32, i32, i32, i32, ptr, i64, i64, float, float, i32, i32, ptr, ptr, i32, i32, i32, i32, i32, ptr, ptr, ptr, ptr, i32, i32, [8 x i64], i32, i32, i32, i32, i32, i32, i32, ptr, ptr, i32, i32, i32, i32, i32, i32, i32, i32, i32, i32, ptr, ptr, i32, i32, ptr, ptr, ptr, ptr, i32, i32, i64, i32, i32, i64, ptr, i64, ptr, i32, ptr, i32 }
%struct.AVRational = type { i32, i32 }
%struct.AVChannelLayout = type { i32, i32, %union.anon.1, ptr }
%union.anon.1 = type { i64 }

; Function Attrs: inlinehint nounwind uwtable
define internal i32 @check_bidir_mv(ptr noundef %0, i32 noundef %1, i32 noundef %2, i32 noundef %3, i32 noundef %4, i32 noundef %5, i32 noundef %6, i32 noundef %7, i32 noundef %8, i32 noundef %9, i32 noundef %10) #1 {
  %12 = alloca ptr, align 8
  %13 = alloca i32, align 4
  %14 = alloca i32, align 4
  %15 = alloca i32, align 4
  %16 = alloca i32, align 4
  %17 = alloca i32, align 4
  %18 = alloca i32, align 4
  %19 = alloca i32, align 4
  %20 = alloca i32, align 4
  %21 = alloca i32, align 4
  %22 = alloca i32, align 4
  %23 = alloca ptr, align 8
  %24 = alloca ptr, align 8
  %25 = alloca ptr, align 8
  %26 = alloca i32, align 4
  %27 = alloca ptr, align 8
  %28 = alloca ptr, align 8
  %29 = alloca i32, align 4
  %30 = alloca i32, align 4
  %31 = alloca i32, align 4
  %32 = alloca i32, align 4
  %33 = alloca ptr, align 8
  %34 = alloca ptr, align 8
  %35 = alloca ptr, align 8
  store ptr %0, ptr %12, align 8, !tbaa !4
  store i32 %1, ptr %13, align 4, !tbaa !9
  store i32 %2, ptr %14, align 4, !tbaa !9
  store i32 %3, ptr %15, align 4, !tbaa !9
  store i32 %4, ptr %16, align 4, !tbaa !9
  store i32 %5, ptr %17, align 4, !tbaa !9
  store i32 %6, ptr %18, align 4, !tbaa !9
  store i32 %7, ptr %19, align 4, !tbaa !9
  store i32 %8, ptr %20, align 4, !tbaa !9
  store i32 %9, ptr %21, align 4, !tbaa !9
  store i32 %10, ptr %22, align 4, !tbaa !9
  call void @llvm.lifetime.start.p0(i64 8, ptr %23) #12
  %36 = load ptr, ptr %12, align 8, !tbaa !4
  %37 = getelementptr inbounds nuw %struct.MPVEncContext, ptr %36, i32 0, i32 18
  store ptr %37, ptr %23, align 8, !tbaa !11
  call void @llvm.lifetime.start.p0(i64 8, ptr %24) #12
  %38 = load ptr, ptr %23, align 8, !tbaa !11
  %39 = getelementptr inbounds nuw %struct.MotionEstContext, ptr %38, i32 0, i32 40
  %40 = load ptr, ptr %39, align 8, !tbaa !139
  %41 = load ptr, ptr %12, align 8, !tbaa !4
  %42 = getelementptr inbounds nuw %struct.MPVEncContext, ptr %41, i32 0, i32 19
  %43 = load i32, ptr %42, align 8, !tbaa !140
  %44 = sext i32 %43 to i64
  %45 = getelementptr inbounds [16385 x i8], ptr %40, i64 %44
  %46 = getelementptr inbounds [16385 x i8], ptr %45, i64 0, i64 0
  %47 = getelementptr inbounds i8, ptr %46, i64 8192
  store ptr %47, ptr %24, align 8, !tbaa !27
  call void @llvm.lifetime.start.p0(i64 8, ptr %25) #12
  %48 = load ptr, ptr %23, align 8, !tbaa !11
  %49 = getelementptr inbounds nuw %struct.MotionEstContext, ptr %48, i32 0, i32 40
  %50 = load ptr, ptr %49, align 8, !tbaa !139
  %51 = load ptr, ptr %12, align 8, !tbaa !4
  %52 = getelementptr inbounds nuw %struct.MPVEncContext, ptr %51, i32 0, i32 20
  %53 = load i32, ptr %52, align 4, !tbaa !174
  %54 = sext i32 %53 to i64
  %55 = getelementptr inbounds [16385 x i8], ptr %50, i64 %54
  %56 = getelementptr inbounds [16385 x i8], ptr %55, i64 0, i64 0
  %57 = getelementptr inbounds i8, ptr %56, i64 8192
  store ptr %57, ptr %25, align 8, !tbaa !27
  call void @llvm.lifetime.start.p0(i64 4, ptr %26) #12
  %58 = load ptr, ptr %23, align 8, !tbaa !11
  %59 = getelementptr inbounds nuw %struct.MotionEstContext, ptr %58, i32 0, i32 25
  %60 = load i32, ptr %59, align 8, !tbaa !122
  store i32 %60, ptr %26, align 4, !tbaa !9
  call void @llvm.lifetime.start.p0(i64 8, ptr %27) #12
  %61 = load ptr, ptr %23, align 8, !tbaa !11
  %62 = getelementptr inbounds nuw %struct.MotionEstContext, ptr %61, i32 0, i32 5
  %63 = load ptr, ptr %62, align 8, !tbaa !153
  store ptr %63, ptr %27, align 8, !tbaa !27
  call void @llvm.lifetime.start.p0(i64 8, ptr %28) #12
  call void @llvm.lifetime.start.p0(i64 4, ptr %29) #12
  call void @llvm.lifetime.start.p0(i64 4, ptr %30) #12
  call void @llvm.lifetime.start.p0(i64 4, ptr %31) #12
  call void @llvm.lifetime.start.p0(i64 4, ptr %32) #12
  call void @llvm.lifetime.start.p0(i64 8, ptr %33) #12
  %64 = load ptr, ptr %23, align 8, !tbaa !11
  %65 = getelementptr inbounds nuw %struct.MotionEstContext, ptr %64, i32 0, i32 23
  %66 = getelementptr inbounds [4 x [4 x ptr]], ptr %65, i64 0, i64 0
  %67 = getelementptr inbounds [4 x ptr], ptr %66, i64 0, i64 0
  store ptr %67, ptr %33, align 8, !tbaa !157
  call void @llvm.lifetime.start.p0(i64 8, ptr %34) #12
  %68 = load ptr, ptr %23, align 8, !tbaa !11
  %69 = getelementptr inbounds nuw %struct.MotionEstContext, ptr %68, i32 0, i32 24
  %70 = getelementptr inbounds [4 x [4 x ptr]], ptr %69, i64 0, i64 0
  %71 = getelementptr inbounds [4 x ptr], ptr %70, i64 0, i64 0
  store ptr %71, ptr %34, align 8, !tbaa !157
  call void @llvm.lifetime.start.p0(i64 8, ptr %35) #12
  %72 = load ptr, ptr %23, align 8, !tbaa !11
  %73 = getelementptr inbounds nuw %struct.MotionEstContext, ptr %72, i32 0, i32 24
  %74 = getelementptr inbounds [4 x [4 x ptr]], ptr %73, i64 0, i64 2
  %75 = getelementptr inbounds [4 x ptr], ptr %74, i64 0, i64 0
  store ptr %75, ptr %35, align 8, !tbaa !157
  %76 = load ptr, ptr %12, align 8, !tbaa !4
  %77 = getelementptr inbounds nuw %struct.MPVEncContext, ptr %76, i32 0, i32 0
  %78 = getelementptr inbounds nuw %struct.MpegEncContext, ptr %77, i32 0, i32 119
  %79 = load i32, ptr %78, align 4, !tbaa !135
  %80 = icmp ne i32 %79, 0
  br i1 %80, label %81, label %152

81:                                               ; preds = %11
  %82 = load i32, ptr %14, align 4, !tbaa !9
  %83 = and i32 %82, 3
  %84 = shl i32 %83, 2
  %85 = load i32, ptr %13, align 4, !tbaa !9
  %86 = and i32 %85, 3
  %87 = or i32 %84, %86
  store i32 %87, ptr %29, align 4, !tbaa !9
  %88 = load i32, ptr %13, align 4, !tbaa !9
  %89 = ashr i32 %88, 2
  store i32 %89, ptr %30, align 4, !tbaa !9
  %90 = load i32, ptr %14, align 4, !tbaa !9
  %91 = ashr i32 %90, 2
  store i32 %91, ptr %31, align 4, !tbaa !9
  %92 = load ptr, ptr %34, align 8, !tbaa !157
  %93 = getelementptr inbounds ptr, ptr %92, i64 0
  %94 = load ptr, ptr %93, align 8, !tbaa !27
  %95 = load i32, ptr %31, align 4, !tbaa !9
  %96 = load i32, ptr %26, align 4, !tbaa !9
  %97 = mul nsw i32 %95, %96
  %98 = sext i32 %97 to i64
  %99 = getelementptr inbounds i8, ptr %94, i64 %98
  %100 = load i32, ptr %30, align 4, !tbaa !9
  %101 = sext i32 %100 to i64
  %102 = getelementptr inbounds i8, ptr %99, i64 %101
  store ptr %102, ptr %28, align 8, !tbaa !27
  %103 = load ptr, ptr %12, align 8, !tbaa !4
  %104 = getelementptr inbounds nuw %struct.MPVEncContext, ptr %103, i32 0, i32 0
  %105 = getelementptr inbounds nuw %struct.MpegEncContext, ptr %104, i32 0, i32 70
  %106 = getelementptr inbounds nuw %struct.QpelDSPContext, ptr %105, i32 0, i32 0
  %107 = getelementptr inbounds [2 x [16 x ptr]], ptr %106, i64 0, i64 0
  %108 = load i32, ptr %29, align 4, !tbaa !9
  %109 = sext i32 %108 to i64
  %110 = getelementptr inbounds [16 x ptr], ptr %107, i64 0, i64 %109
  %111 = load ptr, ptr %110, align 8, !tbaa !30
  %112 = load ptr, ptr %27, align 8, !tbaa !27
  %113 = load ptr, ptr %28, align 8, !tbaa !27
  %114 = load i32, ptr %26, align 4, !tbaa !9
  %115 = sext i32 %114 to i64
  call void %111(ptr noundef %112, ptr noundef %113, i64 noundef %115)
  %116 = load i32, ptr %16, align 4, !tbaa !9
  %117 = and i32 %116, 3
  %118 = shl i32 %117, 2
  %119 = load i32, ptr %15, align 4, !tbaa !9
  %120 = and i32 %119, 3
  %121 = or i32 %118, %120
  store i32 %121, ptr %29, align 4, !tbaa !9
  %122 = load i32, ptr %15, align 4, !tbaa !9
  %123 = ashr i32 %122, 2
  store i32 %123, ptr %30, align 4, !tbaa !9
  %124 = load i32, ptr %16, align 4, !tbaa !9
  %125 = ashr i32 %124, 2
  store i32 %125, ptr %31, align 4, !tbaa !9
  %126 = load ptr, ptr %35, align 8, !tbaa !157
  %127 = getelementptr inbounds ptr, ptr %126, i64 0
  %128 = load ptr, ptr %127, align 8, !tbaa !27
  %129 = load i32, ptr %31, align 4, !tbaa !9
  %130 = load i32, ptr %26, align 4, !tbaa !9
  %131 = mul nsw i32 %129, %130
  %132 = sext i32 %131 to i64
  %133 = getelementptr inbounds i8, ptr %128, i64 %132
  %134 = load i32, ptr %30, align 4, !tbaa !9
  %135 = sext i32 %134 to i64
  %136 = getelementptr inbounds i8, ptr %133, i64 %135
  store ptr %136, ptr %28, align 8, !tbaa !27
  %137 = load ptr, ptr %12, align 8, !tbaa !4
  %138 = getelementptr inbounds nuw %struct.MPVEncContext, ptr %137, i32 0, i32 0
  %139 = getelementptr inbounds nuw %struct.MpegEncContext, ptr %138, i32 0, i32 70
  %140 = getelementptr inbounds nuw %struct.QpelDSPContext, ptr %139, i32 0, i32 1
  %141 = load i32, ptr %21, align 4, !tbaa !9
  %142 = sext i32 %141 to i64
  %143 = getelementptr inbounds [2 x [16 x ptr]], ptr %140, i64 0, i64 %142
  %144 = load i32, ptr %29, align 4, !tbaa !9
  %145 = sext i32 %144 to i64
  %146 = getelementptr inbounds [16 x ptr], ptr %143, i64 0, i64 %145
  %147 = load ptr, ptr %146, align 8, !tbaa !30
  %148 = load ptr, ptr %27, align 8, !tbaa !27
  %149 = load ptr, ptr %28, align 8, !tbaa !27
  %150 = load i32, ptr %26, align 4, !tbaa !9
  %151 = sext i32 %150 to i64
  call void %147(ptr noundef %148, ptr noundef %149, i64 noundef %151)
  br label %227

152:                                              ; preds = %11
  %153 = load i32, ptr %14, align 4, !tbaa !9
  %154 = and i32 %153, 1
  %155 = shl i32 %154, 1
  %156 = load i32, ptr %13, align 4, !tbaa !9
  %157 = and i32 %156, 1
  %158 = or i32 %155, %157
  store i32 %158, ptr %29, align 4, !tbaa !9
  %159 = load i32, ptr %13, align 4, !tbaa !9
  %160 = ashr i32 %159, 1
  store i32 %160, ptr %30, align 4, !tbaa !9
  %161 = load i32, ptr %14, align 4, !tbaa !9
  %162 = ashr i32 %161, 1
  store i32 %162, ptr %31, align 4, !tbaa !9
  %163 = load ptr, ptr %34, align 8, !tbaa !157
  %164 = getelementptr inbounds ptr, ptr %163, i64 0
  %165 = load ptr, ptr %164, align 8, !tbaa !27
  %166 = load i32, ptr %31, align 4, !tbaa !9
  %167 = load i32, ptr %26, align 4, !tbaa !9
  %168 = mul nsw i32 %166, %167
  %169 = sext i32 %168 to i64
  %170 = getelementptr inbounds i8, ptr %165, i64 %169
  %171 = load i32, ptr %30, align 4, !tbaa !9
  %172 = sext i32 %171 to i64
  %173 = getelementptr inbounds i8, ptr %170, i64 %172
  store ptr %173, ptr %28, align 8, !tbaa !27
  %174 = load ptr, ptr %12, align 8, !tbaa !4
  %175 = getelementptr inbounds nuw %struct.MPVEncContext, ptr %174, i32 0, i32 0
  %176 = getelementptr inbounds nuw %struct.MpegEncContext, ptr %175, i32 0, i32 68
  %177 = getelementptr inbounds nuw %struct.HpelDSPContext, ptr %176, i32 0, i32 0
  %178 = load i32, ptr %21, align 4, !tbaa !9
  %179 = sext i32 %178 to i64
  %180 = getelementptr inbounds [4 x [4 x ptr]], ptr %177, i64 0, i64 %179
  %181 = load i32, ptr %29, align 4, !tbaa !9
  %182 = sext i32 %181 to i64
  %183 = getelementptr inbounds [4 x ptr], ptr %180, i64 0, i64 %182
  %184 = load ptr, ptr %183, align 8, !tbaa !30
  %185 = load ptr, ptr %27, align 8, !tbaa !27
  %186 = load ptr, ptr %28, align 8, !tbaa !27
  %187 = load i32, ptr %26, align 4, !tbaa !9
  %188 = sext i32 %187 to i64
  %189 = load i32, ptr %22, align 4, !tbaa !9
  call void %184(ptr noundef %185, ptr noundef %186, i64 noundef %188, i32 noundef %189)
  %190 = load i32, ptr %16, align 4, !tbaa !9
  %191 = and i32 %190, 1
  %192 = shl i32 %191, 1
  %193 = load i32, ptr %15, align 4, !tbaa !9
  %194 = and i32 %193, 1
  %195 = or i32 %192, %194
  store i32 %195, ptr %29, align 4, !tbaa !9
  %196 = load i32, ptr %15, align 4, !tbaa !9
  %197 = ashr i32 %196, 1
  store i32 %197, ptr %30, align 4, !tbaa !9
  %198 = load i32, ptr %16, align 4, !tbaa !9
  %199 = ashr i32 %198, 1
  store i32 %199, ptr %31, align 4, !tbaa !9
  %200 = load ptr, ptr %35, align 8, !tbaa !157
  %201 = getelementptr inbounds ptr, ptr %200, i64 0
  %202 = load ptr, ptr %201, align 8, !tbaa !27
  %203 = load i32, ptr %31, align 4, !tbaa !9
  %204 = load i32, ptr %26, align 4, !tbaa !9
  %205 = mul nsw i32 %203, %204
  %206 = sext i32 %205 to i64
  %207 = getelementptr inbounds i8, ptr %202, i64 %206
  %208 = load i32, ptr %30, align 4, !tbaa !9
  %209 = sext i32 %208 to i64
  %210 = getelementptr inbounds i8, ptr %207, i64 %209
  store ptr %210, ptr %28, align 8, !tbaa !27
  %211 = load ptr, ptr %12, align 8, !tbaa !4
  %212 = getelementptr inbounds nuw %struct.MPVEncContext, ptr %211, i32 0, i32 0
  %213 = getelementptr inbounds nuw %struct.MpegEncContext, ptr %212, i32 0, i32 68
  %214 = getelementptr inbounds nuw %struct.HpelDSPContext, ptr %213, i32 0, i32 1
  %215 = load i32, ptr %21, align 4, !tbaa !9
  %216 = sext i32 %215 to i64
  %217 = getelementptr inbounds [4 x [4 x ptr]], ptr %214, i64 0, i64 %216
  %218 = load i32, ptr %29, align 4, !tbaa !9
  %219 = sext i32 %218 to i64
  %220 = getelementptr inbounds [4 x ptr], ptr %217, i64 0, i64 %219
  %221 = load ptr, ptr %220, align 8, !tbaa !30
  %222 = load ptr, ptr %27, align 8, !tbaa !27
  %223 = load ptr, ptr %28, align 8, !tbaa !27
  %224 = load i32, ptr %26, align 4, !tbaa !9
  %225 = sext i32 %224 to i64
  %226 = load i32, ptr %22, align 4, !tbaa !9
  call void %221(ptr noundef %222, ptr noundef %223, i64 noundef %225, i32 noundef %226)
  br label %227

227:                                              ; preds = %152, %81
  %228 = load ptr, ptr %24, align 8, !tbaa !27
  %229 = load i32, ptr %13, align 4, !tbaa !9
  %230 = load i32, ptr %17, align 4, !tbaa !9
  %231 = sub nsw i32 %229, %230
  %232 = sext i32 %231 to i64
  %233 = getelementptr inbounds i8, ptr %228, i64 %232
  %234 = load i8, ptr %233, align 1, !tbaa !31
  %235 = zext i8 %234 to i32
  %236 = load ptr, ptr %24, align 8, !tbaa !27
  %237 = load i32, ptr %14, align 4, !tbaa !9
  %238 = load i32, ptr %18, align 4, !tbaa !9
  %239 = sub nsw i32 %237, %238
  %240 = sext i32 %239 to i64
  %241 = getelementptr inbounds i8, ptr %236, i64 %240
  %242 = load i8, ptr %241, align 1, !tbaa !31
  %243 = zext i8 %242 to i32
  %244 = add nsw i32 %235, %243
  %245 = load ptr, ptr %23, align 8, !tbaa !11
  %246 = getelementptr inbounds nuw %struct.MotionEstContext, ptr %245, i32 0, i32 11
  %247 = load i32, ptr %246, align 8, !tbaa !13
  %248 = mul nsw i32 %244, %247
  %249 = load ptr, ptr %25, align 8, !tbaa !27
  %250 = load i32, ptr %15, align 4, !tbaa !9
  %251 = load i32, ptr %19, align 4, !tbaa !9
  %252 = sub nsw i32 %250, %251
  %253 = sext i32 %252 to i64
  %254 = getelementptr inbounds i8, ptr %249, i64 %253
  %255 = load i8, ptr %254, align 1, !tbaa !31
  %256 = zext i8 %255 to i32
  %257 = load ptr, ptr %25, align 8, !tbaa !27
  %258 = load i32, ptr %16, align 4, !tbaa !9
  %259 = load i32, ptr %20, align 4, !tbaa !9
  %260 = sub nsw i32 %258, %259
  %261 = sext i32 %260 to i64
  %262 = getelementptr inbounds i8, ptr %257, i64 %261
  %263 = load i8, ptr %262, align 1, !tbaa !31
  %264 = zext i8 %263 to i32
  %265 = add nsw i32 %256, %264
  %266 = load ptr, ptr %23, align 8, !tbaa !11
  %267 = getelementptr inbounds nuw %struct.MotionEstContext, ptr %266, i32 0, i32 11
  %268 = load i32, ptr %267, align 8, !tbaa !13
  %269 = mul nsw i32 %265, %268
  %270 = add nsw i32 %248, %269
  %271 = load ptr, ptr %23, align 8, !tbaa !11
  %272 = getelementptr inbounds nuw %struct.MotionEstContext, ptr %271, i32 0, i32 33
  %273 = load i32, ptr %21, align 4, !tbaa !9
  %274 = sext i32 %273 to i64
  %275 = getelementptr inbounds [6 x ptr], ptr %272, i64 0, i64 %274
  %276 = load ptr, ptr %275, align 8, !tbaa !30
  %277 = load ptr, ptr %12, align 8, !tbaa !4
  %278 = load ptr, ptr %33, align 8, !tbaa !157
  %279 = getelementptr inbounds ptr, ptr %278, i64 0
  %280 = load ptr, ptr %279, align 8, !tbaa !27
  %281 = load ptr, ptr %27, align 8, !tbaa !27
  %282 = load i32, ptr %26, align 4, !tbaa !9
  %283 = sext i32 %282 to i64
  %284 = load i32, ptr %22, align 4, !tbaa !9
  %285 = call i32 %276(ptr noundef %277, ptr noundef %280, ptr noundef %281, i64 noundef %283, i32 noundef %284)
  %286 = add nsw i32 %270, %285
  store i32 %286, ptr %32, align 4, !tbaa !9
  %287 = load ptr, ptr %23, align 8, !tbaa !11
  %288 = getelementptr inbounds nuw %struct.MotionEstContext, ptr %287, i32 0, i32 0
  %289 = load ptr, ptr %288, align 8, !tbaa !74
  %290 = getelementptr inbounds nuw %struct.AVCodecContext, ptr %289, i32 0, i32 49
  %291 = load i32, ptr %290, align 4, !tbaa !105
  %292 = and i32 %291, 256
  %293 = icmp ne i32 %292, 0
  br i1 %293, label %294, label %295

294:                                              ; preds = %227
  br label %295

295:                                              ; preds = %294, %227
  %296 = load i32, ptr %32, align 4, !tbaa !9
  call void @llvm.lifetime.end.p0(i64 8, ptr %35) #12
  call void @llvm.lifetime.end.p0(i64 8, ptr %34) #12
  call void @llvm.lifetime.end.p0(i64 8, ptr %33) #12
  call void @llvm.lifetime.end.p0(i64 4, ptr %32) #12
  call void @llvm.lifetime.end.p0(i64 4, ptr %31) #12
  call void @llvm.lifetime.end.p0(i64 4, ptr %30) #12
  call void @llvm.lifetime.end.p0(i64 4, ptr %29) #12
  call void @llvm.lifetime.end.p0(i64 8, ptr %28) #12
  call void @llvm.lifetime.end.p0(i64 8, ptr %27) #12
  call void @llvm.lifetime.end.p0(i64 4, ptr %26) #12
  call void @llvm.lifetime.end.p0(i64 8, ptr %25) #12
  call void @llvm.lifetime.end.p0(i64 8, ptr %24) #12
  call void @llvm.lifetime.end.p0(i64 8, ptr %23) #12
  ret i32 %296
}