; Function Attrs: inlinehint nounwind uwtable
define internal fastcc i32 @check_bidir_mv(ptr noundef %0, i32 noundef %1, i32 noundef %2, i32 noundef %3, i32 noundef %4, i32 noundef range(i32 -32768, 32768) %5, i32 noundef range(i32 -32768, 32768) %6, i32 noundef range(i32 -32768, 32768) %7, i32 noundef range(i32 -32768, 32768) %8) unnamed_addr #1 {
  %10 = getelementptr inbounds nuw i8, ptr %0, i64 5768
  %11 = load ptr, ptr %10, align 8, !tbaa !132
  %12 = getelementptr inbounds nuw i8, ptr %0, i64 6304
  %13 = load i32, ptr %12, align 8, !tbaa !133
  %14 = getelementptr inbounds nuw i8, ptr %0, i64 6308
  %15 = load i32, ptr %14, align 4, !tbaa !167
  %16 = getelementptr inbounds nuw i8, ptr %0, i64 5440
  %17 = load i32, ptr %16, align 8, !tbaa !19
  %18 = getelementptr inbounds nuw i8, ptr %0, i64 5104
  %19 = load ptr, ptr %18, align 8, !tbaa !154
  %20 = getelementptr inbounds nuw i8, ptr %0, i64 5312
  %21 = getelementptr inbounds nuw i8, ptr %0, i64 5376
  %22 = getelementptr inbounds nuw i8, ptr %0, i64 4092
  %23 = load i32, ptr %22, align 4, !tbaa !127
  %.not = icmp eq i32 %23, 0
  %24 = load ptr, ptr %20, align 8, !tbaa !60
  %25 = sext i32 %17 to i64
  br i1 %.not, label %58, label %26

26:                                               ; preds = %9
  %27 = shl i32 %2, 2
  %28 = and i32 %27, 12
  %29 = and i32 %1, 3
  %30 = or disjoint i32 %28, %29
  %31 = ashr i32 %1, 2
  %32 = ashr i32 %2, 2
  %33 = mul nsw i32 %17, %32
  %34 = sext i32 %33 to i64
  %35 = getelementptr inbounds i8, ptr %24, i64 %34
  %36 = sext i32 %31 to i64
  %37 = getelementptr inbounds i8, ptr %35, i64 %36
  %38 = getelementptr inbounds nuw i8, ptr %0, i64 2128
  %39 = zext nneg i32 %30 to i64
  %40 = getelementptr inbounds nuw [16 x ptr], ptr %38, i64 0, i64 %39
  %41 = load ptr, ptr %40, align 8, !tbaa !18
  tail call void %41(ptr noundef %19, ptr noundef %37, i64 noundef %25) #14
  %42 = shl i32 %4, 2
  %43 = and i32 %42, 12
  %44 = and i32 %3, 3
  %45 = or disjoint i32 %43, %44
  %46 = ashr i32 %3, 2
  %47 = ashr i32 %4, 2
  %48 = load ptr, ptr %21, align 8, !tbaa !60
  %49 = mul nsw i32 %17, %47
  %50 = sext i32 %49 to i64
  %51 = getelementptr inbounds i8, ptr %48, i64 %50
  %52 = sext i32 %46 to i64
  %53 = getelementptr inbounds i8, ptr %51, i64 %52
  %54 = getelementptr inbounds nuw i8, ptr %0, i64 2384
  %55 = zext nneg i32 %45 to i64
  %56 = getelementptr inbounds nuw [16 x ptr], ptr %54, i64 0, i64 %55
  %57 = load ptr, ptr %56, align 8, !tbaa !18
  tail call void %57(ptr noundef %19, ptr noundef %53, i64 noundef %25) #14
  br label %90

58:                                               ; preds = %9
  %59 = shl i32 %2, 1
  %60 = and i32 %59, 2
  %61 = and i32 %1, 1
  %62 = or disjoint i32 %60, %61
  %63 = ashr i32 %1, 1
  %64 = ashr i32 %2, 1
  %65 = mul nsw i32 %17, %64
  %66 = sext i32 %65 to i64
  %67 = getelementptr inbounds i8, ptr %24, i64 %66
  %68 = sext i32 %63 to i64
  %69 = getelementptr inbounds i8, ptr %67, i64 %68
  %70 = getelementptr inbounds nuw i8, ptr %0, i64 1592
  %71 = zext nneg i32 %62 to i64
  %72 = getelementptr inbounds nuw [4 x ptr], ptr %70, i64 0, i64 %71
  %73 = load ptr, ptr %72, align 8, !tbaa !18
  tail call void %73(ptr noundef %19, ptr noundef %69, i64 noundef %25, i32 noundef 16) #14
  %74 = shl i32 %4, 1
  %75 = and i32 %74, 2
  %76 = and i32 %3, 1
  %77 = or disjoint i32 %75, %76
  %78 = ashr i32 %3, 1
  %79 = ashr i32 %4, 1
  %80 = load ptr, ptr %21, align 8, !tbaa !60
  %81 = mul nsw i32 %17, %79
  %82 = sext i32 %81 to i64
  %83 = getelementptr inbounds i8, ptr %80, i64 %82
  %84 = sext i32 %78 to i64
  %85 = getelementptr inbounds i8, ptr %83, i64 %84
  %86 = getelementptr inbounds nuw i8, ptr %0, i64 1720
  %87 = zext nneg i32 %77 to i64
  %88 = getelementptr inbounds nuw [4 x ptr], ptr %86, i64 0, i64 %87
  %89 = load ptr, ptr %88, align 8, !tbaa !18
  tail call void %89(ptr noundef %19, ptr noundef %85, i64 noundef %25, i32 noundef 16) #14
  br label %90

90:                                               ; preds = %58, %26
  %91 = getelementptr inbounds nuw i8, ptr %0, i64 5184
  %92 = sext i32 %15 to i64
  %93 = getelementptr inbounds [16385 x i8], ptr %11, i64 %92, i64 8192
  %94 = sext i32 %13 to i64
  %95 = getelementptr inbounds [16385 x i8], ptr %11, i64 %94, i64 8192
  %96 = sub nsw i32 %1, %5
  %97 = sext i32 %96 to i64
  %98 = getelementptr inbounds i8, ptr %95, i64 %97
  %99 = load i8, ptr %98, align 1, !tbaa !68
  %100 = zext i8 %99 to i32
  %101 = sub nsw i32 %2, %6
  %102 = sext i32 %101 to i64
  %103 = getelementptr inbounds i8, ptr %95, i64 %102
  %104 = load i8, ptr %103, align 1, !tbaa !68
  %105 = zext i8 %104 to i32
  %106 = getelementptr inbounds nuw i8, ptr %0, i64 5136
  %107 = load i32, ptr %106, align 8, !tbaa !4
  %108 = sub nsw i32 %3, %7
  %109 = sext i32 %108 to i64
  %110 = getelementptr inbounds i8, ptr %93, i64 %109
  %111 = load i8, ptr %110, align 1, !tbaa !68
  %112 = zext i8 %111 to i32
  %113 = sub nsw i32 %4, %8
  %114 = sext i32 %113 to i64
  %115 = getelementptr inbounds i8, ptr %93, i64 %114
  %116 = load i8, ptr %115, align 1, !tbaa !68
  %117 = zext i8 %116 to i32
  %118 = add nuw nsw i32 %105, %100
  %119 = add nuw nsw i32 %118, %112
  %120 = add nuw nsw i32 %119, %117
  %121 = mul i32 %120, %107
  %122 = getelementptr inbounds nuw i8, ptr %0, i64 5616
  %123 = load ptr, ptr %122, align 8, !tbaa !18
  %124 = load ptr, ptr %91, align 8, !tbaa !60
  %125 = tail call i32 %123(ptr noundef nonnull %0, ptr noundef %124, ptr noundef %19, i64 noundef %25, i32 noundef 16) #14
  %126 = add nsw i32 %121, %125
  ret i32 %126
}